target datalayout = "e-m:e-p270:32:32-p271:32:32-p272:64:64-i64:64-i128:128-f80:128-n8:16:32:64-S128"
target triple = "x86_64-pc-linux-gnu"

@.str.1 = private unnamed_addr constant [32 x i8] c"/sys/devices/system/node/node%u\00", align 1

; Function Attrs: inlinehint nounwind uwtable
define internal i32 @mi_prim_access(ptr noundef %0, i32 noundef %1) #5 {
  %3 = alloca ptr, align 8
  %4 = alloca i32, align 4
  store ptr %0, ptr %3, align 8, !tbaa !33
  store i32 %1, ptr %4, align 4, !tbaa !19
  %5 = load ptr, ptr %3, align 8, !tbaa !33
  %6 = load i32, ptr %4, align 4, !tbaa !19
  %7 = call i64 (i64, ...) @syscall(i64 noundef 21, ptr noundef %5, i32 noundef %6) #7
  %8 = trunc i64 %7 to i32
  ret i32 %8
}

; Function Attrs: nounwind uwtable
define hidden i64 @_mi_prim_numa_node_count() #0 {
  %1 = alloca [128 x i8], align 16
  %2 = alloca i32, align 4
  call void @llvm.lifetime.start.p0(i64 128, ptr %1) #6
  call void @llvm.lifetime.start.p0(i64 4, ptr %2) #6
  store i32 0, ptr %2, align 4, !tbaa !19
  store i32 0, ptr %2, align 4, !tbaa !19
  br label %3

3:                                                ; preds = %16, %0
  %4 = load i32, ptr %2, align 4, !tbaa !19
  %5 = icmp ult i32 %4, 256
  br i1 %5, label %6, label %19

6:                                                ; preds = %3
  %7 = getelementptr inbounds [128 x i8], ptr %1, i64 0, i64 0
  %8 = load i32, ptr %2, align 4, !tbaa !19
  %9 = add i32 %8, 1
  %10 = call i32 (ptr, i64, ptr, ...) @_mi_snprintf(ptr noundef %7, i64 noundef 127, ptr noundef @.str.1, i32 noundef %9) #8
  %11 = getelementptr inbounds [128 x i8], ptr %1, i64 0, i64 0
  %12 = call i32 @mi_prim_access(ptr noundef %11, i32 noundef 4) #8
  %13 = icmp ne i32 %12, 0
  br i1 %13, label %14, label %15

14:                                               ; preds = %6
  br label %19

15:                                               ; preds = %6
  br label %16

16:                                               ; preds = %15
  %17 = load i32, ptr %2, align 4, !tbaa !19
  %18 = add i32 %17, 1
  store i32 %18, ptr %2, align 4, !tbaa !19
  br label %3, !llvm.loop !32

19:                                               ; preds = %14, %3
  %20 = load i32, ptr %2, align 4, !tbaa !19
  %21 = add i32 %20, 1
  %22 = zext i32 %21 to i64
  call void @llvm.lifetime.end.p0(i64 4, ptr %2) #6
  call void @llvm.lifetime.end.p0(i64 128, ptr %1) #6
  ret i64 %22
}